(lp0
S'poi'
p1
aS'salary'
p2
aS'total_payments'
p3
aS'bonus'
p4
aS'total_stock_value'
p5
aS'expenses'
p6
aS'exercised_stock_options'
p7
aS'other'
p8
aS'long_term_incentive'
p9
aS'restricted_stock'
p10
aS'to_messages'
p11
aS'from_poi_to_this_person'
p12
aS'from_messages'
p13
aS'from_this_person_to_poi'
p14
aS'shared_receipt_with_poi'
p15
aS'fraction_to_poi'
p16
aS'fraction_from_poi'
p17
a.